target datalayout = "e-m:e-p270:32:32-p271:32:32-p272:64:64-i64:64-i128:128-f80:128-n8:16:32:64-S128"
target triple = "x86_64-pc-linux-gnu"

%struct._zend_stack = type { i32, i32, i32, ptr }
%struct._zend_array = type { %struct._zend_refcounted_h, %union.anon.5, i32, %union.anon.7, i32, i32, i32, i32, i64, ptr }
%struct._zend_refcounted_h = type { i32, %union.anon.4 }
%union.anon.4 = type { i32 }
%union.anon.5 = type { i32 }
%union.anon.7 = type { ptr }
%struct._zend_compiler_globals = type { %struct._zend_stack, ptr, ptr, i32, ptr, ptr, ptr, ptr, i8, i8, i8, i8, i8, %struct._zend_llist, ptr, i8, i8, i8, i8, ptr, i32, i32, %struct._zend_oparray_context, %struct._zend_file_context, ptr, %struct._zend_array, ptr, i64, i8, i8, i8, ptr, ptr, %struct._zend_stack, ptr, i32, ptr, ptr, i64, i64, ptr, ptr, ptr, ptr, i32, %struct._zend_stack }
%struct._zend_llist = type { ptr, ptr, i64, i64, ptr, i8, ptr }
%struct._zend_oparray_context = type { i32, i32, i32, i32, i32, i32, i32, ptr, ptr, i8 }
%struct._zend_file_context = type { %struct._zend_declarables, ptr, i8, i8, ptr, ptr, ptr, %struct._zend_array }
%struct._zend_declarables = type { i64 }

@compiler_globals = external global %struct._zend_compiler_globals, align 8

; Function Attrs: nounwind uwtable
define internal i32 @ct_eval_func_call(ptr noundef %0, ptr noundef %1, ptr noundef %2, i32 noundef %3, ptr noundef %4) #0 {
  %6 = alloca ptr, align 8
  %7 = alloca ptr, align 8
  %8 = alloca ptr, align 8
  %9 = alloca ptr, align 8
  %10 = alloca i32, align 4
  %11 = alloca ptr, align 8
  %12 = alloca ptr, align 8
  %13 = alloca ptr, align 8
  %14 = alloca i32, align 4
  %15 = alloca ptr, align 8
  %16 = alloca ptr, align 8
  store ptr %0, ptr %11, align 8
  store ptr %1, ptr %12, align 8
  store ptr %2, ptr %13, align 8
  store i32 %3, ptr %14, align 4
  store ptr %4, ptr %15, align 8
  %17 = load ptr, ptr getelementptr inbounds (%struct._zend_compiler_globals, ptr @compiler_globals, i32 0, i32 5), align 8
  %18 = load ptr, ptr %13, align 8
  store ptr %17, ptr %7, align 8
  store ptr %18, ptr %8, align 8
  %19 = load ptr, ptr %7, align 8
  %20 = load ptr, ptr %8, align 8
  %21 = call ptr @zend_hash_find(ptr noundef %19, ptr noundef %20) #10
  store ptr %21, ptr %9, align 8
  %22 = load ptr, ptr %9, align 8
  %23 = icmp ne ptr %22, null
  br i1 %23, label %24, label %30

24:                                               ; preds = %5
  %25 = load ptr, ptr %9, align 8
  %26 = load ptr, ptr %25, align 8
  %27 = icmp ne ptr %26, null
  call void @llvm.assume(i1 %27)
  %28 = load ptr, ptr %9, align 8
  %29 = load ptr, ptr %28, align 8
  store ptr %29, ptr %6, align 8
  br label %31

30:                                               ; preds = %5
  store ptr null, ptr %6, align 8
  br label %31

31:                                               ; preds = %30, %24
  %32 = load ptr, ptr %6, align 8
  store ptr %32, ptr %16, align 8
  %33 = load ptr, ptr %16, align 8
  %34 = icmp ne ptr %33, null
  br i1 %34, label %35, label %40

35:                                               ; preds = %31
  %36 = load ptr, ptr %16, align 8
  %37 = load i8, ptr %36, align 8
  %38 = zext i8 %37 to i32
  %39 = icmp ne i32 %38, 1
  br i1 %39, label %40, label %41

40:                                               ; preds = %35, %31
  store i32 -1, ptr %10, align 4
  br label %48

41:                                               ; preds = %35
  %42 = load ptr, ptr %11, align 8
  %43 = load ptr, ptr %12, align 8
  %44 = load ptr, ptr %16, align 8
  %45 = load i32, ptr %14, align 4
  %46 = load ptr, ptr %15, align 8
  %47 = call i32 @ct_eval_func_call_ex(ptr noundef %42, ptr noundef %43, ptr noundef %44, i32 noundef %45, ptr noundef %46)
  store i32 %47, ptr %10, align 4
  br label %48

48:                                               ; preds = %41, %40
  %49 = load i32, ptr %10, align 4
  ret i32 %49
}