; Function Attrs: nounwind uwtable
define internal fastcc noundef i32 @ct_eval_func_call(ptr noundef %0, ptr noundef %1, ptr noundef %2, i32 noundef %3, ptr nocapture noundef readonly %4) unnamed_addr #0 {
  %6 = load ptr, ptr getelementptr inbounds (%struct._zend_compiler_globals, ptr @compiler_globals, i64 0, i32 5), align 8
  %7 = tail call ptr @zend_hash_find(ptr noundef %6, ptr noundef %2) #13
  %.not = icmp eq ptr %7, null
  br i1 %.not, label %.thread, label %8

8:                                                ; preds = %5
  %9 = load ptr, ptr %7, align 8, !nonnull !6, !noundef !6
  %10 = load i8, ptr %9, align 8
  %.not17 = icmp eq i8 %10, 1
  br i1 %.not17, label %11, label %.thread

11:                                               ; preds = %8
  %12 = tail call fastcc i32 @ct_eval_func_call_ex(ptr noundef %0, ptr noundef %1, ptr noundef nonnull %9, i32 noundef %3, ptr noundef %4), !range !5
  br label %.thread

.thread:                                          ; preds = %5, %8, %11
  %.014 = phi i32 [ %12, %11 ], [ -1, %8 ], [ -1, %5 ]
  ret i32 %.014
}